target datalayout = "e-m:e-p270:32:32-p271:32:32-p272:64:64-i64:64-i128:128-f80:128-n8:16:32:64-S128"
target triple = "x86_64-pc-linux-gnu"

%class.State = type { [315 x i32], [315 x i16], i32, ptr, [2 x ptr] }

@_ZN19Abstract_VM_Version9_featuresE = external global i64, align 8

; Function Attrs: mustprogress nounwind uwtable
define linkonce_odr hidden noundef zeroext i1 @_ZN10VM_Version17supports_avx512vlEv() #1 comdat align 2 {
  %1 = load i64, ptr @_ZN19Abstract_VM_Version9_featuresE, align 8
  %2 = and i64 %1, 8589934592
  %3 = icmp ne i64 %2, 0
  ret i1 %3
}

; Function Attrs: mustprogress nounwind uwtable
define hidden void @_ZN5State17_sub_Op_CompressVEPK4Node(ptr noundef nonnull align 8 dereferenceable(1920) %0, ptr noundef %1) #1 align 2 {
  %3 = alloca ptr, align 8
  %4 = alloca ptr, align 8
  %5 = alloca i32, align 4
  %6 = alloca i32, align 4
  store ptr %0, ptr %3, align 8
  store ptr %1, ptr %4, align 8
  %7 = load ptr, ptr %3, align 8
  %8 = getelementptr inbounds %class.State, ptr %7, i32 0, i32 4
  %9 = getelementptr inbounds [2 x ptr], ptr %8, i64 0, i64 0
  %10 = load ptr, ptr %9, align 8
  %11 = icmp ne ptr %10, null
  br i1 %11, label %12, label %69

12:                                               ; preds = %2
  %13 = getelementptr inbounds %class.State, ptr %7, i32 0, i32 4
  %14 = getelementptr inbounds [2 x ptr], ptr %13, i64 0, i64 0
  %15 = load ptr, ptr %14, align 8
  %16 = getelementptr inbounds %class.State, ptr %15, i32 0, i32 1
  %17 = getelementptr inbounds [315 x i16], ptr %16, i64 0, i64 114
  %18 = load i16, ptr %17, align 4
  %19 = zext i16 %18 to i32
  %20 = and i32 %19, 1
  %21 = icmp ne i32 %20, 0
  br i1 %21, label %22, label %69

22:                                               ; preds = %12
  %23 = getelementptr inbounds %class.State, ptr %7, i32 0, i32 4
  %24 = getelementptr inbounds [2 x ptr], ptr %23, i64 0, i64 1
  %25 = load ptr, ptr %24, align 8
  %26 = icmp ne ptr %25, null
  br i1 %26, label %27, label %69

27:                                               ; preds = %22
  %28 = getelementptr inbounds %class.State, ptr %7, i32 0, i32 4
  %29 = getelementptr inbounds [2 x ptr], ptr %28, i64 0, i64 1
  %30 = load ptr, ptr %29, align 8
  %31 = getelementptr inbounds %class.State, ptr %30, i32 0, i32 1
  %32 = getelementptr inbounds [315 x i16], ptr %31, i64 0, i64 48
  %33 = load i16, ptr %32, align 4
  %34 = zext i16 %33 to i32
  %35 = and i32 %34, 1
  %36 = icmp ne i32 %35, 0
  br i1 %36, label %37, label %69

37:                                               ; preds = %27
  %38 = call noundef zeroext i1 @_ZN10VM_Version17supports_avx512vlEv()
  br i1 %38, label %43, label %39

39:                                               ; preds = %37
  %40 = load ptr, ptr %4, align 8
  %41 = call noundef i32 @_ZN7Matcher22vector_length_in_bytesEPK4Node(ptr noundef %40)
  %42 = icmp eq i32 %41, 64
  br i1 %42, label %43, label %69

43:                                               ; preds = %39, %37
  %44 = getelementptr inbounds %class.State, ptr %7, i32 0, i32 4
  %45 = getelementptr inbounds [2 x ptr], ptr %44, i64 0, i64 0
  %46 = load ptr, ptr %45, align 8
  %47 = getelementptr inbounds %class.State, ptr %46, i32 0, i32 0
  %48 = getelementptr inbounds [315 x i32], ptr %47, i64 0, i64 114
  %49 = load i32, ptr %48, align 8
  %50 = getelementptr inbounds %class.State, ptr %7, i32 0, i32 4
  %51 = getelementptr inbounds [2 x ptr], ptr %50, i64 0, i64 1
  %52 = load ptr, ptr %51, align 8
  %53 = getelementptr inbounds %class.State, ptr %52, i32 0, i32 0
  %54 = getelementptr inbounds [315 x i32], ptr %53, i64 0, i64 48
  %55 = load i32, ptr %54, align 8
  %56 = add i32 %49, %55
  %57 = add i32 %56, 100
  store i32 %57, ptr %5, align 4
  %58 = load i32, ptr %5, align 4
  %59 = getelementptr inbounds %class.State, ptr %7, i32 0, i32 0
  %60 = getelementptr inbounds [315 x i32], ptr %59, i64 0, i64 114
  store i32 %58, ptr %60, align 8
  %61 = getelementptr inbounds %class.State, ptr %7, i32 0, i32 1
  %62 = getelementptr inbounds [315 x i16], ptr %61, i64 0, i64 114
  store i16 3087, ptr %62, align 4
  %63 = load i32, ptr %5, align 4
  %64 = add i32 %63, 100
  %65 = getelementptr inbounds %class.State, ptr %7, i32 0, i32 0
  %66 = getelementptr inbounds [315 x i32], ptr %65, i64 0, i64 115
  store i32 %64, ptr %66, align 4
  %67 = getelementptr inbounds %class.State, ptr %7, i32 0, i32 1
  %68 = getelementptr inbounds [315 x i16], ptr %67, i64 0, i64 115
  store i16 731, ptr %68, align 2
  br label %69

69:                                               ; preds = %43, %39, %27, %22, %12, %2
  %70 = getelementptr inbounds %class.State, ptr %7, i32 0, i32 4
  %71 = getelementptr inbounds [2 x ptr], ptr %70, i64 0, i64 0
  %72 = load ptr, ptr %71, align 8
  %73 = icmp ne ptr %72, null
  br i1 %73, label %74, label %160

74:                                               ; preds = %69
  %75 = getelementptr inbounds %class.State, ptr %7, i32 0, i32 4
  %76 = getelementptr inbounds [2 x ptr], ptr %75, i64 0, i64 0
  %77 = load ptr, ptr %76, align 8
  %78 = getelementptr inbounds %class.State, ptr %77, i32 0, i32 1
  %79 = getelementptr inbounds [315 x i16], ptr %78, i64 0, i64 114
  %80 = load i16, ptr %79, align 4
  %81 = zext i16 %80 to i32
  %82 = and i32 %81, 1
  %83 = icmp ne i32 %82, 0
  br i1 %83, label %84, label %160

84:                                               ; preds = %74
  %85 = getelementptr inbounds %class.State, ptr %7, i32 0, i32 4
  %86 = getelementptr inbounds [2 x ptr], ptr %85, i64 0, i64 1
  %87 = load ptr, ptr %86, align 8
  %88 = icmp ne ptr %87, null
  br i1 %88, label %89, label %160

89:                                               ; preds = %84
  %90 = getelementptr inbounds %class.State, ptr %7, i32 0, i32 4
  %91 = getelementptr inbounds [2 x ptr], ptr %90, i64 0, i64 1
  %92 = load ptr, ptr %91, align 8
  %93 = getelementptr inbounds %class.State, ptr %92, i32 0, i32 1
  %94 = getelementptr inbounds [315 x i16], ptr %93, i64 0, i64 114
  %95 = load i16, ptr %94, align 4
  %96 = zext i16 %95 to i32
  %97 = and i32 %96, 1
  %98 = icmp ne i32 %97, 0
  br i1 %98, label %99, label %160

99:                                               ; preds = %89
  %100 = call noundef zeroext i1 @_ZN10VM_Version17supports_avx512vlEv()
  br i1 %100, label %160, label %101

101:                                              ; preds = %99
  %102 = load ptr, ptr %4, align 8
  %103 = call noundef i32 @_ZN7Matcher22vector_length_in_bytesEPK4Node(ptr noundef %102)
  %104 = icmp ule i32 %103, 32
  br i1 %104, label %105, label %160

105:                                              ; preds = %101
  %106 = getelementptr inbounds %class.State, ptr %7, i32 0, i32 4
  %107 = getelementptr inbounds [2 x ptr], ptr %106, i64 0, i64 0
  %108 = load ptr, ptr %107, align 8
  %109 = getelementptr inbounds %class.State, ptr %108, i32 0, i32 0
  %110 = getelementptr inbounds [315 x i32], ptr %109, i64 0, i64 114
  %111 = load i32, ptr %110, align 8
  %112 = getelementptr inbounds %class.State, ptr %7, i32 0, i32 4
  %113 = getelementptr inbounds [2 x ptr], ptr %112, i64 0, i64 1
  %114 = load ptr, ptr %113, align 8
  %115 = getelementptr inbounds %class.State, ptr %114, i32 0, i32 0
  %116 = getelementptr inbounds [315 x i32], ptr %115, i64 0, i64 114
  %117 = load i32, ptr %116, align 8
  %118 = add i32 %111, %117
  %119 = add i32 %118, 100
  store i32 %119, ptr %6, align 4
  %120 = getelementptr inbounds %class.State, ptr %7, i32 0, i32 1
  %121 = getelementptr inbounds [315 x i16], ptr %120, i64 0, i64 114
  %122 = load i16, ptr %121, align 4
  %123 = zext i16 %122 to i32
  %124 = and i32 %123, 1
  %125 = icmp eq i32 %124, 0
  br i1 %125, label %132, label %126

126:                                              ; preds = %105
  %127 = getelementptr inbounds %class.State, ptr %7, i32 0, i32 0
  %128 = getelementptr inbounds [315 x i32], ptr %127, i64 0, i64 114
  %129 = load i32, ptr %128, align 8
  %130 = load i32, ptr %6, align 4
  %131 = icmp ugt i32 %129, %130
  br i1 %131, label %132, label %138

132:                                              ; preds = %126, %105
  %133 = load i32, ptr %6, align 4
  %134 = getelementptr inbounds %class.State, ptr %7, i32 0, i32 0
  %135 = getelementptr inbounds [315 x i32], ptr %134, i64 0, i64 114
  store i32 %133, ptr %135, align 8
  %136 = getelementptr inbounds %class.State, ptr %7, i32 0, i32 1
  %137 = getelementptr inbounds [315 x i16], ptr %136, i64 0, i64 114
  store i16 3083, ptr %137, align 4
  br label %138

138:                                              ; preds = %132, %126
  %139 = getelementptr inbounds %class.State, ptr %7, i32 0, i32 1
  %140 = getelementptr inbounds [315 x i16], ptr %139, i64 0, i64 115
  %141 = load i16, ptr %140, align 2
  %142 = zext i16 %141 to i32
  %143 = and i32 %142, 1
  %144 = icmp eq i32 %143, 0
  br i1 %144, label %152, label %145

145:                                              ; preds = %138
  %146 = getelementptr inbounds %class.State, ptr %7, i32 0, i32 0
  %147 = getelementptr inbounds [315 x i32], ptr %146, i64 0, i64 115
  %148 = load i32, ptr %147, align 4
  %149 = load i32, ptr %6, align 4
  %150 = add i32 %149, 100
  %151 = icmp ugt i32 %148, %150
  br i1 %151, label %152, label %159

152:                                              ; preds = %145, %138
  %153 = load i32, ptr %6, align 4
  %154 = add i32 %153, 100
  %155 = getelementptr inbounds %class.State, ptr %7, i32 0, i32 0
  %156 = getelementptr inbounds [315 x i32], ptr %155, i64 0, i64 115
  store i32 %154, ptr %156, align 4
  %157 = getelementptr inbounds %class.State, ptr %7, i32 0, i32 1
  %158 = getelementptr inbounds [315 x i16], ptr %157, i64 0, i64 115
  store i16 731, ptr %158, align 2
  br label %159

159:                                              ; preds = %152, %145
  br label %160

160:                                              ; preds = %159, %101, %99, %89, %84, %74, %69
  ret void
}